(dp1
S'IY'
p2
I01
sS'UW0'
p3
I01
sS'AO1'
p4
I01
sS'DH'
p5
I00
sS'IH2'
p6
I01
sS'UW2'
p7
I01
sS'CH'
p8
I00
sS'IH1'
p9
I01
sS'OY2'
p10
I01
sS'AH2'
p11
I01
sS'Y'
I00
sS'AH0'
p12
I01
sS'AH1'
p13
I01
sS'JH'
p14
I00
sS'UH0'
p15
I01
sS'UH1'
p16
I01
sS'ZH'
p17
I00
sS'L'
I00
sS'EH'
p18
I01
sS'S'
I00
sS'Z'
I00
sS'EH2'
p19
I01
sS'EH0'
p20
I01
sS'EH1'
p21
I01
sS'IY0'
p22
I01
sS'NG'
p23
I00
sS'EY1'
p24
I01
sS'EY0'
p25
I01
sS'W'
I00
sS'EY2'
p26
I01
sS'TH'
p27
I00
sS'IY1'
p28
I01
sS'T'
I00
sS'OW2'
p29
I01
sS'AY1'
p30
I01
sS'AY0'
p31
I01
sS'AY2'
p32
I01
sS'AA'
p33
I01
sS'V'
I00
sS'B'
I00
sS'AE'
p34
I01
sS'D'
I00
sS'G'
I00
sS'F'
I00
sS'AH'
p35
I01
sS'K'
I00
sS'IY2'
p36
I01
sS'M'
I00
sS'AW2'
p37
I01
sS'AW1'
p38
I01
sS'AW0'
p39
I01
sS'IH'
p40
I01
sS'IH0'
p41
I01
sS'R'
I00
sS'EY'
p42
I01
sS'AO'
p43
I01
sS'AW'
p44
I01
sS'AO0'
p45
I01
sS'AY'
p46
I01
sS'N'
I00
sS'OW1'
p47
I01
sS'OW0'
p48
I01
sS'ER'
p49
I01
sS'AE1'
p50
I01
sS'AE0'
p51
I01
sS'AE2'
p52
I01
sS'ER0'
p53
I01
sS'ER1'
p54
I01
sS'ER2'
p55
I01
sS'P'
I00
sS'UW'
p56
I01
sS'UW1'
p57
I01
sS'HH'
p58
I00
sS'OY1'
p59
I01
sS'OY0'
p60
I01
sS'UH'
p61
I01
sS'SH'
p62
I00
sS'AA1'
p63
I01
sS'AA0'
p64
I01
sS'OY'
p65
I01
sS'AA2'
p66
I01
sS'OW'
p67
I01
sS'UH2'
p68
I01
sS'AO2'
p69
I01
s.